; Function Attrs: mustprogress uwtable
define internal void @_ZN12_GLOBAL__N_120DOCTEST_ANON_FUNC_56Ev() #5 personality ptr @__gxx_personality_v0 {
  %1 = alloca %"struct.(anonymous namespace)::DOCTEST_ANON_CLASS_55", align 8
  call void @_ZN16NormalizeFixtureC2Ev(ptr noundef nonnull align 8 dereferenceable(3816) %1)
  invoke fastcc void @_ZN12_GLOBAL__N_121DOCTEST_ANON_CLASS_551fEv(ptr noundef nonnull align 8 dereferenceable(3816) %1)
          to label %2 unwind label %3

2:                                                ; preds = %0
  call void @_ZN16NormalizeFixtureD2Ev(ptr noundef nonnull align 8 dereferenceable(3816) %1) #21
  ret void

3:                                                ; preds = %0
  %4 = landingpad { ptr, i32 }
          cleanup
  call void @_ZN16NormalizeFixtureD2Ev(ptr noundef nonnull align 8 dereferenceable(3816) %1) #21
  resume { ptr, i32 } %4
}